; ModuleID = '40/1358.c'
source_filename = "40/1358.c"
target datalayout = "e-m:e-p270:32:32-p271:32:32-p272:64:64-i64:64-f80:128-n8:16:32:64-S128"
target triple = "x86_64-pc-linux-gnu"

@.str = private unnamed_addr constant [3 x i8] c"%f\00", align 1
@.str.1 = private unnamed_addr constant [2 x i8] c"\0A\00", align 1
@.str.2 = private unnamed_addr constant [15 x i8] c"Invalid input\0A\00", align 1
@.str.3 = private unnamed_addr constant [7 x i8] c"%.4lf\0A\00", align 1

; Function Attrs: noinline nounwind uwtable
define dso_local i32 @main() #0 {
  %1 = alloca i32, align 4
  %2 = alloca float, align 4
  %3 = alloca float, align 4
  %4 = alloca float, align 4
  %5 = alloca float, align 4
  %6 = alloca float, align 4
  %7 = alloca float, align 4
  %8 = alloca double, align 8
  %9 = alloca double, align 8
  store i32 0, i32* %1, align 4
  %10 = call i32 (i8*, ...) @__isoc99_scanf(i8* getelementptr inbounds ([3 x i8], [3 x i8]* @.str, i64 0, i64 0), float* %2)
  %11 = call i32 (i8*, ...) @printf(i8* getelementptr inbounds ([2 x i8], [2 x i8]* @.str.1, i64 0, i64 0))
  %12 = call i32 (i8*, ...) @__isoc99_scanf(i8* getelementptr inbounds ([3 x i8], [3 x i8]* @.str, i64 0, i64 0), float* %3)
  %13 = call i32 (i8*, ...) @printf(i8* getelementptr inbounds ([2 x i8], [2 x i8]* @.str.1, i64 0, i64 0))
  %14 = call i32 (i8*, ...) @__isoc99_scanf(i8* getelementptr inbounds ([3 x i8], [3 x i8]* @.str, i64 0, i64 0), float* %4)
  %15 = call i32 (i8*, ...) @printf(i8* getelementptr inbounds ([2 x i8], [2 x i8]* @.str.1, i64 0, i64 0))
  %16 = call i32 (i8*, ...) @__isoc99_scanf(i8* getelementptr inbounds ([3 x i8], [3 x i8]* @.str, i64 0, i64 0), float* %5)
  %17 = call i32 (i8*, ...) @printf(i8* getelementptr inbounds ([2 x i8], [2 x i8]* @.str.1, i64 0, i64 0))
  %18 = call i32 (i8*, ...) @__isoc99_scanf(i8* getelementptr inbounds ([3 x i8], [3 x i8]* @.str, i64 0, i64 0), float* %6)
  %19 = call i32 (i8*, ...) @printf(i8* getelementptr inbounds ([2 x i8], [2 x i8]* @.str.1, i64 0, i64 0))
  %20 = load float, float* %6, align 4
  %21 = fmul float %20, 1.000000e+02
  %22 = fdiv float %21, 1.800000e+02
  %23 = fpext float %22 to double
  store double %23, double* %8, align 8
  %24 = load float, float* %2, align 4
  %25 = load float, float* %3, align 4
  %26 = fadd float %24, %25
  %27 = load float, float* %4, align 4
  %28 = fadd float %26, %27
  %29 = load float, float* %5, align 4
  %30 = fadd float %28, %29
  %31 = fdiv float %30, 2.000000e+00
  store float %31, float* %7, align 4
  %32 = load float, float* %7, align 4
  %33 = load float, float* %2, align 4
  %34 = fsub float %32, %33
  %35 = load float, float* %7, align 4
  %36 = load float, float* %3, align 4
  %37 = fsub float %35, %36
  %38 = fmul float %34, %37
  %39 = load float, float* %7, align 4
  %40 = load float, float* %4, align 4
  %41 = fsub float %39, %40
  %42 = fmul float %38, %41
  %43 = load float, float* %7, align 4
  %44 = load float, float* %5, align 4
  %45 = fsub float %43, %44
  %46 = fmul float %42, %45
  %47 = fpext float %46 to double
  %48 = load float, float* %2, align 4
  %49 = load float, float* %3, align 4
  %50 = fmul float %48, %49
  %51 = load float, float* %4, align 4
  %52 = fmul float %50, %51
  %53 = load float, float* %5, align 4
  %54 = fmul float %52, %53
  %55 = fpext float %54 to double
  %56 = load double, double* %8, align 8
  %57 = fdiv double %56, 2.000000e+00
  %58 = call double @cos(double %57) #3
  %59 = fmul double %55, %58
  %60 = load double, double* %8, align 8
  %61 = fdiv double %60, 2.000000e+00
  %62 = call double @cos(double %61) #3
  %63 = fmul double %59, %62
  %64 = fsub double %47, %63
  %65 = call double @sqrt(double %64) #3
  store double %65, double* %9, align 8
  %66 = load float, float* %7, align 4
  %67 = load float, float* %2, align 4
  %68 = fsub float %66, %67
  %69 = load float, float* %7, align 4
  %70 = load float, float* %3, align 4
  %71 = fsub float %69, %70
  %72 = fmul float %68, %71
  %73 = load float, float* %7, align 4
  %74 = load float, float* %4, align 4
  %75 = fsub float %73, %74
  %76 = fmul float %72, %75
  %77 = load float, float* %7, align 4
  %78 = load float, float* %5, align 4
  %79 = fsub float %77, %78
  %80 = fmul float %76, %79
  %81 = fpext float %80 to double
  %82 = load float, float* %2, align 4
  %83 = load float, float* %3, align 4
  %84 = fmul float %82, %83
  %85 = load float, float* %4, align 4
  %86 = fmul float %84, %85
  %87 = load float, float* %5, align 4
  %88 = fmul float %86, %87
  %89 = fpext float %88 to double
  %90 = load double, double* %8, align 8
  %91 = fdiv double %90, 2.000000e+00
  %92 = call double @cos(double %91) #3
  %93 = fmul double %89, %92
  %94 = load double, double* %8, align 8
  %95 = fdiv double %94, 2.000000e+00
  %96 = call double @cos(double %95) #3
  %97 = fmul double %93, %96
  %98 = fsub double %81, %97
  %99 = fcmp olt double %98, 0.000000e+00
  br i1 %99, label %100, label %102

100:                                              ; preds = %0
  %101 = call i32 (i8*, ...) @printf(i8* getelementptr inbounds ([15 x i8], [15 x i8]* @.str.2, i64 0, i64 0))
  br label %105

102:                                              ; preds = %0
  %103 = load double, double* %9, align 8
  %104 = call i32 (i8*, ...) @printf(i8* getelementptr inbounds ([7 x i8], [7 x i8]* @.str.3, i64 0, i64 0), double %103)
  br label %105

105:                                              ; preds = %102, %100
  ret i32 0
}

declare dso_local i32 @__isoc99_scanf(i8*, ...) #1

declare dso_local i32 @printf(i8*, ...) #1

; Function Attrs: nounwind
declare dso_local double @sqrt(double) #2

; Function Attrs: nounwind
declare dso_local double @cos(double) #2


!llvm.module.flags = !{!0}
!llvm.ident = !{!1}

!0 = !{i32 1, !"wchar_size", i32 4}
!1 = !{!"clang version 10.0.0-4ubuntu1 "}
